target datalayout = "e-m:e-p270:32:32-p271:32:32-p272:64:64-i64:64-i128:128-f80:128-n8:16:32:64-S128"
target triple = "x86_64-pc-linux-gnu"

%struct.Saig_ManCba_t_ = type { ptr, ptr, i32, i32, ptr, ptr, ptr, ptr }

; Function Attrs: nounwind uwtable
define ptr @Saig_ManCbaStart(ptr noundef %0, ptr noundef %1, i32 noundef %2, i32 noundef %3) #0 {
  %5 = alloca ptr, align 8
  %6 = alloca ptr, align 8
  %7 = alloca i32, align 4
  %8 = alloca i32, align 4
  %9 = alloca ptr, align 8
  store ptr %0, ptr %5, align 8, !tbaa !3
  store ptr %1, ptr %6, align 8, !tbaa !8
  store i32 %2, ptr %7, align 4, !tbaa !12
  store i32 %3, ptr %8, align 4, !tbaa !12
  call void @llvm.lifetime.start.p0(i64 8, ptr %9) #11
  %10 = call noalias ptr @calloc(i64 noundef 1, i64 noundef 56) #14
  store ptr %10, ptr %9, align 8, !tbaa !72
  %11 = load ptr, ptr %5, align 8, !tbaa !3
  %12 = load ptr, ptr %9, align 8, !tbaa !72
  %13 = getelementptr inbounds nuw %struct.Saig_ManCba_t_, ptr %12, i32 0, i32 0
  store ptr %11, ptr %13, align 8, !tbaa !74
  %14 = load ptr, ptr %6, align 8, !tbaa !8
  %15 = load ptr, ptr %9, align 8, !tbaa !72
  %16 = getelementptr inbounds nuw %struct.Saig_ManCba_t_, ptr %15, i32 0, i32 1
  store ptr %14, ptr %16, align 8, !tbaa !79
  %17 = load i32, ptr %7, align 4, !tbaa !12
  %18 = load ptr, ptr %9, align 8, !tbaa !72
  %19 = getelementptr inbounds nuw %struct.Saig_ManCba_t_, ptr %18, i32 0, i32 2
  store i32 %17, ptr %19, align 8, !tbaa !77
  %20 = load i32, ptr %8, align 4, !tbaa !12
  %21 = load ptr, ptr %9, align 8, !tbaa !72
  %22 = getelementptr inbounds nuw %struct.Saig_ManCba_t_, ptr %21, i32 0, i32 3
  store i32 %20, ptr %22, align 4, !tbaa !104
  %23 = load ptr, ptr %9, align 8, !tbaa !72
  call void @llvm.lifetime.end.p0(i64 8, ptr %9) #11
  ret ptr %23
}