; Function Attrs: mustprogress nofree nounwind willreturn memory(write, argmem: none, inaccessiblemem: readwrite) uwtable
define noalias noundef ptr @Saig_ManCbaStart(ptr noundef %0, ptr noundef %1, i32 noundef %2, i32 noundef %3) local_unnamed_addr #6 {
  %5 = tail call noalias dereferenceable_or_null(56) ptr @calloc(i64 noundef 1, i64 noundef 56) #22
  store ptr %0, ptr %5, align 8, !tbaa !64
  %6 = getelementptr inbounds nuw i8, ptr %5, i64 8
  store ptr %1, ptr %6, align 8, !tbaa !69
  %7 = getelementptr inbounds nuw i8, ptr %5, i64 16
  store i32 %2, ptr %7, align 8, !tbaa !67
  %8 = getelementptr inbounds nuw i8, ptr %5, i64 20
  store i32 %3, ptr %8, align 4, !tbaa !95
  ret ptr %5
}